target datalayout = "e-m:e-p270:32:32-p271:32:32-p272:64:64-i64:64-i128:128-f80:128-n8:16:32:64-S128"
target triple = "x86_64-pc-linux-gnu"

%"class.clang::ento::SubRegion" = type { %"class.clang::ento::MemRegion", ptr }
%"class.clang::ento::MemRegion" = type { ptr, %"class.llvm::FoldingSetBase::Node", i32, [4 x i8], %"class.std::optional" }
%"class.llvm::FoldingSetBase::Node" = type { ptr }
%"class.std::optional" = type { %"struct.std::_Optional_base" }
%"struct.std::_Optional_base" = type { %"struct.std::_Optional_payload" }
%"struct.std::_Optional_payload" = type { %"struct.std::_Optional_payload_base.base", [7 x i8] }
%"struct.std::_Optional_payload_base.base" = type <{ %"union.std::_Optional_payload_base<clang::ento::RegionOffset>::_Storage", i8 }>
%"union.std::_Optional_payload_base<clang::ento::RegionOffset>::_Storage" = type { %"class.clang::ento::RegionOffset" }
%"class.clang::ento::RegionOffset" = type { ptr, i64 }

; Function Attrs: mustprogress nounwind uwtable
define linkonce_odr hidden noundef i32 @_ZNK5clang4ento9MemRegion7getKindEv(ptr noundef nonnull align 8 dereferenceable(48) %0) #0 comdat align 2 {
  %2 = alloca ptr, align 8
  store ptr %0, ptr %2, align 8
  %3 = load ptr, ptr %2, align 8
  %4 = getelementptr inbounds nuw %"class.clang::ento::MemRegion", ptr %3, i32 0, i32 2
  %5 = load i32, ptr %4, align 8
  ret i32 %5
}

; Function Attrs: mustprogress nounwind uwtable
define linkonce_odr hidden noundef zeroext i1 @_ZN5clang4ento19CXXBaseObjectRegion7classofEPKNS0_9MemRegionE(ptr noundef %0) #0 comdat align 2 {
  %2 = alloca ptr, align 8
  store ptr %0, ptr %2, align 8
  %3 = load ptr, ptr %2, align 8
  %4 = call noundef i32 @_ZNK5clang4ento9MemRegion7getKindEv(ptr noundef nonnull align 8 dereferenceable(48) %3)
  %5 = icmp eq i32 %4, 15
  ret i1 %5
}

; Function Attrs: mustprogress nounwind uwtable
define linkonce_odr hidden noundef zeroext i1 @_ZN5clang4ento16TypedValueRegion7classofEPKNS0_9MemRegionE(ptr noundef %0) #0 comdat align 2 {
  %2 = alloca ptr, align 8
  %3 = alloca i32, align 4
  store ptr %0, ptr %2, align 8
  %4 = load ptr, ptr %2, align 8
  %5 = call noundef i32 @_ZNK5clang4ento9MemRegion7getKindEv(ptr noundef nonnull align 8 dereferenceable(48) %4)
  store i32 %5, ptr %3, align 4
  %6 = load i32, ptr %3, align 4
  %7 = icmp uge i32 %6, 14
  br i1 %7, label %8, label %11

8:                                                ; preds = %1
  %9 = load i32, ptr %3, align 4
  %10 = icmp ule i32 %9, 26
  br label %11

11:                                               ; preds = %8, %1
  %12 = phi i1 [ false, %1 ], [ %10, %8 ]
  ret i1 %12
}

; Function Attrs: mustprogress nounwind uwtable
define linkonce_odr hidden noundef zeroext i1 @_ZN4llvm8isa_implIN5clang4ento19CXXBaseObjectRegionENS2_9SubRegionEvE4doitERKS4_(ptr noundef nonnull align 8 dereferenceable(56) %0) #0 comdat align 2 {
  %2 = alloca ptr, align 8
  store ptr %0, ptr %2, align 8
  %3 = load ptr, ptr %2, align 8
  %4 = call noundef zeroext i1 @_ZN5clang4ento19CXXBaseObjectRegion7classofEPKNS0_9MemRegionE(ptr noundef %3)
  ret i1 %4
}

; Function Attrs: mustprogress nounwind uwtable
define linkonce_odr hidden noundef zeroext i1 @_ZN4llvm8isa_implIN5clang4ento16TypedValueRegionENS2_9SubRegionEvE4doitERKS4_(ptr noundef nonnull align 8 dereferenceable(56) %0) #0 comdat align 2 {
  %2 = alloca ptr, align 8
  store ptr %0, ptr %2, align 8
  %3 = load ptr, ptr %2, align 8
  %4 = call noundef zeroext i1 @_ZN5clang4ento16TypedValueRegion7classofEPKNS0_9MemRegionE(ptr noundef %3)
  ret i1 %4
}

; Function Attrs: mustprogress nounwind uwtable
define linkonce_odr hidden noundef zeroext i1 @_ZN4llvm11isa_impl_clIN5clang4ento19CXXBaseObjectRegionEPKNS2_9SubRegionEE4doitES6_(ptr noundef %0) #0 comdat align 2 {
  %2 = alloca ptr, align 8
  store ptr %0, ptr %2, align 8
  %3 = load ptr, ptr %2, align 8
  %4 = call noundef zeroext i1 @_ZN4llvm8isa_implIN5clang4ento19CXXBaseObjectRegionENS2_9SubRegionEvE4doitERKS4_(ptr noundef nonnull align 8 dereferenceable(56) %3)
  ret i1 %4
}

; Function Attrs: mustprogress nounwind uwtable
define linkonce_odr hidden noundef zeroext i1 @_ZN4llvm11isa_impl_clIN5clang4ento16TypedValueRegionEPKNS2_9SubRegionEE4doitES6_(ptr noundef %0) #0 comdat align 2 {
  %2 = alloca ptr, align 8
  store ptr %0, ptr %2, align 8
  %3 = load ptr, ptr %2, align 8
  %4 = call noundef zeroext i1 @_ZN4llvm8isa_implIN5clang4ento16TypedValueRegionENS2_9SubRegionEvE4doitERKS4_(ptr noundef nonnull align 8 dereferenceable(56) %3)
  ret i1 %4
}

; Function Attrs: mustprogress nounwind uwtable
define linkonce_odr hidden noundef zeroext i1 @_ZN4llvm13isa_impl_wrapIN5clang4ento19CXXBaseObjectRegionEPKNS2_9SubRegionES6_E4doitERKS6_(ptr noundef nonnull align 8 dereferenceable(8) %0) #0 comdat align 2 {
  %2 = alloca ptr, align 8
  store ptr %0, ptr %2, align 8
  %3 = load ptr, ptr %2, align 8
  %4 = load ptr, ptr %3, align 8
  %5 = call noundef zeroext i1 @_ZN4llvm11isa_impl_clIN5clang4ento19CXXBaseObjectRegionEPKNS2_9SubRegionEE4doitES6_(ptr noundef %4)
  ret i1 %5
}

; Function Attrs: mustprogress nounwind uwtable
define linkonce_odr hidden noundef zeroext i1 @_ZN4llvm13isa_impl_wrapIN5clang4ento16TypedValueRegionEPKNS2_9SubRegionES6_E4doitERKS6_(ptr noundef nonnull align 8 dereferenceable(8) %0) #0 comdat align 2 {
  %2 = alloca ptr, align 8
  store ptr %0, ptr %2, align 8
  %3 = load ptr, ptr %2, align 8
  %4 = load ptr, ptr %3, align 8
  %5 = call noundef zeroext i1 @_ZN4llvm11isa_impl_clIN5clang4ento16TypedValueRegionEPKNS2_9SubRegionEE4doitES6_(ptr noundef %4)
  ret i1 %5
}

; Function Attrs: mustprogress nounwind uwtable
define linkonce_odr hidden noundef ptr @_ZN4llvm16cast_convert_valIN5clang4ento19CXXBaseObjectRegionEPKNS2_9SubRegionES6_E4doitES6_(ptr noundef %0) #0 comdat align 2 {
  %2 = alloca ptr, align 8
  store ptr %0, ptr %2, align 8
  %3 = load ptr, ptr %2, align 8
  ret ptr %3
}

; Function Attrs: mustprogress nounwind uwtable
define linkonce_odr hidden noundef zeroext i1 @_ZN4llvm13isa_impl_wrapIN5clang4ento19CXXBaseObjectRegionEKPKNS2_9SubRegionES6_E4doitERS7_(ptr noundef nonnull align 8 dereferenceable(8) %0) #0 comdat align 2 {
  %2 = alloca ptr, align 8
  %3 = alloca ptr, align 8
  store ptr %0, ptr %2, align 8
  %4 = load ptr, ptr %2, align 8
  %5 = call noundef ptr @_ZN4llvm13simplify_typeIKPKN5clang4ento9SubRegionEE18getSimplifiedValueERS6_(ptr noundef nonnull align 8 dereferenceable(8) %4)
  store ptr %5, ptr %3, align 8
  %6 = call noundef zeroext i1 @_ZN4llvm13isa_impl_wrapIN5clang4ento19CXXBaseObjectRegionEPKNS2_9SubRegionES6_E4doitERKS6_(ptr noundef nonnull align 8 dereferenceable(8) %3)
  ret i1 %6
}

; Function Attrs: mustprogress nounwind uwtable
define linkonce_odr hidden noundef zeroext i1 @_ZN4llvm13isa_impl_wrapIN5clang4ento16TypedValueRegionEKPKNS2_9SubRegionES6_E4doitERS7_(ptr noundef nonnull align 8 dereferenceable(8) %0) #0 comdat align 2 {
  %2 = alloca ptr, align 8
  %3 = alloca ptr, align 8
  store ptr %0, ptr %2, align 8
  %4 = load ptr, ptr %2, align 8
  %5 = call noundef ptr @_ZN4llvm13simplify_typeIKPKN5clang4ento9SubRegionEE18getSimplifiedValueERS6_(ptr noundef nonnull align 8 dereferenceable(8) %4)
  store ptr %5, ptr %3, align 8
  %6 = call noundef zeroext i1 @_ZN4llvm13isa_impl_wrapIN5clang4ento16TypedValueRegionEPKNS2_9SubRegionES6_E4doitERKS6_(ptr noundef nonnull align 8 dereferenceable(8) %3)
  ret i1 %6
}

; Function Attrs: mustprogress nounwind uwtable
define linkonce_odr hidden noundef nonnull align 8 dereferenceable(8) ptr @_ZN4llvm13simplify_typeIPKN5clang4ento9SubRegionEE18getSimplifiedValueERS5_(ptr noundef nonnull align 8 dereferenceable(8) %0) #0 comdat align 2 {
  %2 = alloca ptr, align 8
  store ptr %0, ptr %2, align 8
  %3 = load ptr, ptr %2, align 8
  ret ptr %3
}

; Function Attrs: mustprogress nounwind uwtable
define linkonce_odr hidden noundef ptr @_ZN4llvm16cast_convert_valIN5clang4ento9SubRegionEPKNS2_9MemRegionES6_E4doitES6_(ptr noundef %0) #0 comdat align 2 {
  %2 = alloca ptr, align 8
  store ptr %0, ptr %2, align 8
  %3 = load ptr, ptr %2, align 8
  ret ptr %3
}

; Function Attrs: mustprogress nounwind uwtable
define linkonce_odr hidden noundef ptr @_ZN4llvm8CastInfoIN5clang4ento19CXXBaseObjectRegionEPKNS2_9SubRegionEvE6doCastERKS6_(ptr noundef nonnull align 8 dereferenceable(8) %0) #0 comdat align 2 {
  %2 = alloca ptr, align 8
  store ptr %0, ptr %2, align 8
  %3 = load ptr, ptr %2, align 8
  %4 = load ptr, ptr %3, align 8
  %5 = call noundef ptr @_ZN4llvm16cast_convert_valIN5clang4ento19CXXBaseObjectRegionEPKNS2_9SubRegionES6_E4doitES6_(ptr noundef %4)
  ret ptr %5
}

; Function Attrs: mustprogress nounwind uwtable
define linkonce_odr hidden noundef ptr @_ZN4llvm8CastInfoIN5clang4ento19CXXBaseObjectRegionEPKNS2_9SubRegionEvE10castFailedEv() #0 comdat align 2 {
  ret ptr null
}

; Function Attrs: mustprogress nounwind uwtable
define linkonce_odr hidden noundef zeroext i1 @_ZN4llvm14CastIsPossibleIN5clang4ento19CXXBaseObjectRegionEPKNS2_9SubRegionEvE10isPossibleERKS6_(ptr noundef nonnull align 8 dereferenceable(8) %0) #0 comdat align 2 {
  %2 = alloca ptr, align 8
  store ptr %0, ptr %2, align 8
  %3 = load ptr, ptr %2, align 8
  %4 = call noundef zeroext i1 @_ZN4llvm13isa_impl_wrapIN5clang4ento19CXXBaseObjectRegionEKPKNS2_9SubRegionES6_E4doitERS7_(ptr noundef nonnull align 8 dereferenceable(8) %3)
  ret i1 %4
}

; Function Attrs: mustprogress nounwind uwtable
define linkonce_odr hidden noundef zeroext i1 @_ZN4llvm14CastIsPossibleIN5clang4ento16TypedValueRegionEPKNS2_9SubRegionEvE10isPossibleERKS6_(ptr noundef nonnull align 8 dereferenceable(8) %0) #0 comdat align 2 {
  %2 = alloca ptr, align 8
  store ptr %0, ptr %2, align 8
  %3 = load ptr, ptr %2, align 8
  %4 = call noundef zeroext i1 @_ZN4llvm13isa_impl_wrapIN5clang4ento16TypedValueRegionEKPKNS2_9SubRegionES6_E4doitERS7_(ptr noundef nonnull align 8 dereferenceable(8) %3)
  ret i1 %4
}

; Function Attrs: mustprogress nounwind uwtable
define linkonce_odr hidden noundef ptr @_ZN4llvm13simplify_typeIKPKN5clang4ento9SubRegionEE18getSimplifiedValueERS6_(ptr noundef nonnull align 8 dereferenceable(8) %0) #0 comdat align 2 {
  %2 = alloca ptr, align 8
  store ptr %0, ptr %2, align 8
  %3 = load ptr, ptr %2, align 8
  %4 = call noundef nonnull align 8 dereferenceable(8) ptr @_ZN4llvm13simplify_typeIPKN5clang4ento9SubRegionEE18getSimplifiedValueERS5_(ptr noundef nonnull align 8 dereferenceable(8) %3)
  %5 = load ptr, ptr %4, align 8
  ret ptr %5
}

; Function Attrs: mustprogress nounwind uwtable
define linkonce_odr hidden noundef ptr @_ZN4llvm8CastInfoIN5clang4ento9SubRegionEPKNS2_9MemRegionEvE6doCastERKS6_(ptr noundef nonnull align 8 dereferenceable(8) %0) #0 comdat align 2 {
  %2 = alloca ptr, align 8
  store ptr %0, ptr %2, align 8
  %3 = load ptr, ptr %2, align 8
  %4 = load ptr, ptr %3, align 8
  %5 = call noundef ptr @_ZN4llvm16cast_convert_valIN5clang4ento9SubRegionEPKNS2_9MemRegionES6_E4doitES6_(ptr noundef %4)
  ret ptr %5
}

; Function Attrs: mustprogress nounwind uwtable
define linkonce_odr hidden noundef ptr @_ZN4llvm8CastInfoIN5clang4ento19CXXBaseObjectRegionEPKNS2_9SubRegionEvE16doCastIfPossibleERKS6_(ptr noundef nonnull align 8 dereferenceable(8) %0) #0 comdat align 2 {
  %2 = alloca ptr, align 8
  %3 = alloca ptr, align 8
  store ptr %0, ptr %3, align 8
  %4 = load ptr, ptr %3, align 8
  %5 = call noundef zeroext i1 @_ZN4llvm14CastIsPossibleIN5clang4ento19CXXBaseObjectRegionEPKNS2_9SubRegionEvE10isPossibleERKS6_(ptr noundef nonnull align 8 dereferenceable(8) %4)
  br i1 %5, label %8, label %6

6:                                                ; preds = %1
  %7 = call noundef ptr @_ZN4llvm8CastInfoIN5clang4ento19CXXBaseObjectRegionEPKNS2_9SubRegionEvE10castFailedEv()
  store ptr %7, ptr %2, align 8
  br label %11

8:                                                ; preds = %1
  %9 = load ptr, ptr %3, align 8
  %10 = call noundef ptr @_ZN4llvm8CastInfoIN5clang4ento19CXXBaseObjectRegionEPKNS2_9SubRegionEvE6doCastERKS6_(ptr noundef nonnull align 8 dereferenceable(8) %9)
  store ptr %10, ptr %2, align 8
  br label %11

11:                                               ; preds = %8, %6
  %12 = load ptr, ptr %2, align 8
  ret ptr %12
}

; Function Attrs: mustprogress nounwind uwtable
define linkonce_odr hidden noundef zeroext i1 @_ZN4llvm8CastInfoIN5clang4ento16TypedValueRegionEKPKNS2_9SubRegionEvE10isPossibleERS7_(ptr noundef nonnull align 8 dereferenceable(8) %0) #0 comdat align 2 {
  %2 = alloca ptr, align 8
  %3 = alloca ptr, align 8
  store ptr %0, ptr %2, align 8
  %4 = load ptr, ptr %2, align 8
  %5 = call noundef ptr @_ZN4llvm13simplify_typeIKPKN5clang4ento9SubRegionEE18getSimplifiedValueERS6_(ptr noundef nonnull align 8 dereferenceable(8) %4)
  store ptr %5, ptr %3, align 8
  %6 = call noundef zeroext i1 @_ZN4llvm14CastIsPossibleIN5clang4ento16TypedValueRegionEPKNS2_9SubRegionEvE10isPossibleERKS6_(ptr noundef nonnull align 8 dereferenceable(8) %3)
  ret i1 %6
}

; Function Attrs: mustprogress nounwind uwtable
define linkonce_odr hidden noundef ptr @_ZN4llvm4castIN5clang4ento9SubRegionEKNS2_9MemRegionEEEDcPT0_(ptr noundef %0) #0 comdat {
  %2 = alloca ptr, align 8
  store ptr %0, ptr %2, align 8
  %3 = call noundef ptr @_ZN4llvm8CastInfoIN5clang4ento9SubRegionEPKNS2_9MemRegionEvE6doCastERKS6_(ptr noundef nonnull align 8 dereferenceable(8) %2)
  ret ptr %3
}

; Function Attrs: mustprogress nounwind uwtable
define linkonce_odr hidden noundef nonnull ptr @_ZNK5clang4ento9SubRegion14getSuperRegionEv(ptr noundef nonnull align 8 dereferenceable(56) %0) #0 comdat align 2 {
  %2 = alloca ptr, align 8
  store ptr %0, ptr %2, align 8
  %3 = load ptr, ptr %2, align 8
  %4 = getelementptr inbounds nuw %"class.clang::ento::SubRegion", ptr %3, i32 0, i32 1
  %5 = load ptr, ptr %4, align 8
  ret ptr %5
}

; Function Attrs: mustprogress nounwind uwtable
define linkonce_odr hidden noundef ptr @_ZN4llvm8dyn_castIN5clang4ento19CXXBaseObjectRegionEKNS2_9SubRegionEEEDcPT0_(ptr noundef %0) #0 comdat {
  %2 = alloca ptr, align 8
  store ptr %0, ptr %2, align 8
  %3 = call noundef ptr @_ZN4llvm8CastInfoIN5clang4ento19CXXBaseObjectRegionEPKNS2_9SubRegionEvE16doCastIfPossibleERKS6_(ptr noundef nonnull align 8 dereferenceable(8) %2)
  ret ptr %3
}

; Function Attrs: mustprogress nounwind uwtable
define linkonce_odr hidden noundef zeroext i1 @_ZN4llvm3isaIN5clang4ento16TypedValueRegionEPKNS2_9SubRegionEEEbRKT0_(ptr noundef nonnull align 8 dereferenceable(8) %0) #0 comdat {
  %2 = alloca ptr, align 8
  store ptr %0, ptr %2, align 8
  %3 = load ptr, ptr %2, align 8
  %4 = call noundef zeroext i1 @_ZN4llvm8CastInfoIN5clang4ento16TypedValueRegionEKPKNS2_9SubRegionEvE10isPossibleERS7_(ptr noundef nonnull align 8 dereferenceable(8) %3)
  ret i1 %4
}

; Function Attrs: mustprogress nounwind uwtable
define dso_local noundef ptr @_ZN5clang4ento16MemRegionManager22getCXXBaseObjectRegionEPKNS_13CXXRecordDeclEPKNS0_9SubRegionEb(ptr noundef nonnull align 8 dereferenceable(152) %0, ptr noundef %1, ptr noundef %2, i1 noundef zeroext %3) #0 align 2 {
  %5 = alloca ptr, align 8
  %6 = alloca ptr, align 8
  %7 = alloca ptr, align 8
  %8 = alloca i8, align 1
  %9 = alloca ptr, align 8
  store ptr %0, ptr %5, align 8
  store ptr %1, ptr %6, align 8
  store ptr %2, ptr %7, align 8
  %10 = zext i1 %3 to i8
  store i8 %10, ptr %8, align 1
  %11 = load ptr, ptr %5, align 8
  %12 = call noundef zeroext i1 @_ZN4llvm3isaIN5clang4ento16TypedValueRegionEPKNS2_9SubRegionEEEbRKT0_(ptr noundef nonnull align 8 dereferenceable(8) %7)
  br i1 %12, label %13, label %28

13:                                               ; preds = %4
  %14 = load i8, ptr %8, align 1
  %15 = trunc i8 %14 to i1
  br i1 %15, label %16, label %27

16:                                               ; preds = %13
  br label %17

17:                                               ; preds = %22, %16
  %18 = load ptr, ptr %7, align 8
  %19 = call noundef ptr @_ZN4llvm8dyn_castIN5clang4ento19CXXBaseObjectRegionEKNS2_9SubRegionEEEDcPT0_(ptr noundef %18)
  store ptr %19, ptr %9, align 8
  %20 = load ptr, ptr %9, align 8
  %21 = icmp ne ptr %20, null
  br i1 %21, label %22, label %26

22:                                               ; preds = %17
  %23 = load ptr, ptr %9, align 8
  %24 = call noundef nonnull ptr @_ZNK5clang4ento9SubRegion14getSuperRegionEv(ptr noundef nonnull align 8 dereferenceable(56) %23)
  %25 = call noundef ptr @_ZN4llvm4castIN5clang4ento9SubRegionEKNS2_9MemRegionEEEDcPT0_(ptr noundef %24)
  store ptr %25, ptr %7, align 8
  br label %17, !llvm.loop !11

26:                                               ; preds = %17
  br label %27

27:                                               ; preds = %26, %13
  br label %28

28:                                               ; preds = %27, %4
  %29 = load ptr, ptr %6, align 8
  %30 = load i8, ptr %8, align 1
  %31 = trunc i8 %30 to i1
  %32 = load ptr, ptr %7, align 8
  %33 = call noundef ptr @_ZN5clang4ento16MemRegionManager12getSubRegionINS0_19CXXBaseObjectRegionENS0_9SubRegionEPKNS_13CXXRecordDeclEbEEPT_T1_T2_PKT0_(ptr noundef nonnull align 8 dereferenceable(152) %11, ptr noundef %29, i1 noundef zeroext %31, ptr noundef %32)
  ret ptr %33
}