; Function Attrs: mustprogress nounwind uwtable
define dso_local noundef ptr @_ZN5clang4ento16MemRegionManager22getCXXBaseObjectRegionEPKNS_13CXXRecordDeclEPKNS0_9SubRegionEb(ptr noundef nonnull align 8 dereferenceable(152) %0, ptr noundef %1, ptr noundef %2, i1 noundef zeroext %3) local_unnamed_addr #3 align 2 {
  %5 = getelementptr inbounds nuw i8, ptr %2, i64 16
  %6 = load i32, ptr %5, align 8
  %7 = icmp eq i32 %6, 15
  %or.cond.not = and i1 %3, %7
  br i1 %or.cond.not, label %.lr.ph, label %.loopexit

.lr.ph:                                           ; preds = %4, %.lr.ph
  %.113 = phi ptr [ %9, %.lr.ph ], [ %2, %4 ]
  %8 = getelementptr inbounds nuw i8, ptr %.113, i64 48
  %9 = load ptr, ptr %8, align 8
  %10 = getelementptr inbounds nuw i8, ptr %9, i64 16
  %11 = load i32, ptr %10, align 8
  %12 = icmp ne i32 %11, 15
  %.not10 = icmp eq ptr %9, null
  %.not = or i1 %.not10, %12
  br i1 %.not, label %.loopexit, label %.lr.ph, !llvm.loop !80

.loopexit:                                        ; preds = %.lr.ph, %4
  %.0 = phi ptr [ %2, %4 ], [ %9, %.lr.ph ]
  %13 = tail call noundef ptr @_ZN5clang4ento16MemRegionManager12getSubRegionINS0_19CXXBaseObjectRegionENS0_9SubRegionEPKNS_13CXXRecordDeclEbEEPT_T1_T2_PKT0_(ptr noundef nonnull align 8 dereferenceable(152) %0, ptr noundef %1, i1 noundef zeroext %3, ptr noundef nonnull %.0)
  ret ptr %13
}